target datalayout = "e-m:e-p270:32:32-p271:32:32-p272:64:64-i64:64-i128:128-f80:128-n8:16:32:64-S128"
target triple = "x86_64-unknown-linux-gnu"

%"class.FLAC::Metadata::CueSheet::Track" = type { ptr, ptr }

@_ZTVN4FLAC8Metadata8CueSheet5TrackE = unnamed_addr constant { [5 x ptr] } { [5 x ptr] [ptr null, ptr @_ZTIN4FLAC8Metadata8CueSheet5TrackE, ptr @_ZN4FLAC8Metadata8CueSheet5TrackD1Ev, ptr @_ZN4FLAC8Metadata8CueSheet5TrackD0Ev, ptr @_ZNK4FLAC8Metadata8CueSheet5Track8is_validEv] }, align 8

; Function Attrs: mustprogress sspstrong uwtable
define void @_ZN4FLAC8Metadata8CueSheet5TrackC2ERKS2_(ptr noundef nonnull align 8 dereferenceable(16) %this, ptr noundef nonnull align 8 dereferenceable(16) %track) unnamed_addr #0 align 2 {
entry:
  %this.addr = alloca ptr, align 8
  %track.addr = alloca ptr, align 8
  store ptr %this, ptr %this.addr, align 8
  store ptr %track, ptr %track.addr, align 8
  %this1 = load ptr, ptr %this.addr, align 8
  store ptr getelementptr inbounds ({ [5 x ptr] }, ptr @_ZTVN4FLAC8Metadata8CueSheet5TrackE, i32 0, i32 0, i32 2), ptr %this1, align 8
  %object_ = getelementptr inbounds %"class.FLAC::Metadata::CueSheet::Track", ptr %this1, i32 0, i32 1
  %0 = load ptr, ptr %track.addr, align 8
  %object_2 = getelementptr inbounds %"class.FLAC::Metadata::CueSheet::Track", ptr %0, i32 0, i32 1
  %1 = load ptr, ptr %object_2, align 8
  %call = call ptr @FLAC__metadata_object_cuesheet_track_clone(ptr noundef %1)
  store ptr %call, ptr %object_, align 8
  ret void
}