; Function Attrs: mustprogress sspstrong uwtable
define void @_ZN4FLAC8Metadata8CueSheet5TrackC2ERKS2_(ptr nocapture noundef nonnull writeonly align 8 dereferenceable(16) %this, ptr nocapture noundef nonnull readonly align 8 dereferenceable(16) %track) unnamed_addr #0 align 2 {
entry:
  store ptr getelementptr inbounds ({ [5 x ptr] }, ptr @_ZTVN4FLAC8Metadata8CueSheet5TrackE, i64 0, i32 0, i64 2), ptr %this, align 8
  %object_ = getelementptr inbounds i8, ptr %this, i64 8
  %object_2 = getelementptr inbounds i8, ptr %track, i64 8
  %0 = load ptr, ptr %object_2, align 8
  %call = tail call ptr @FLAC__metadata_object_cuesheet_track_clone(ptr noundef %0)
  store ptr %call, ptr %object_, align 8
  ret void
}